target datalayout = "e-m:e-p270:32:32-p271:32:32-p272:64:64-i64:64-i128:128-f80:128-n8:16:32:64-S128"
target triple = "x86_64-unknown-linux-gnu"

%struct.asn1_string_st = type { i32, i32, ptr, i64 }

; Function Attrs: nounwind uwtable
define hidden i32 @ASN1_STRING_copy(ptr noundef %dst, ptr noundef %str) #0 {
entry:
  %retval = alloca i32, align 4
  %dst.addr = alloca ptr, align 8
  %str.addr = alloca ptr, align 8
  store ptr %dst, ptr %dst.addr, align 8
  store ptr %str, ptr %str.addr, align 8
  %0 = load ptr, ptr %str.addr, align 8
  %cmp = icmp eq ptr %0, null
  br i1 %cmp, label %if.then, label %if.end

if.then:                                          ; preds = %entry
  store i32 0, ptr %retval, align 4
  br label %return

if.end:                                           ; preds = %entry
  %1 = load ptr, ptr %str.addr, align 8
  %type = getelementptr inbounds %struct.asn1_string_st, ptr %1, i32 0, i32 1
  %2 = load i32, ptr %type, align 4
  %3 = load ptr, ptr %dst.addr, align 8
  %type1 = getelementptr inbounds %struct.asn1_string_st, ptr %3, i32 0, i32 1
  store i32 %2, ptr %type1, align 4
  %4 = load ptr, ptr %dst.addr, align 8
  %5 = load ptr, ptr %str.addr, align 8
  %data = getelementptr inbounds %struct.asn1_string_st, ptr %5, i32 0, i32 2
  %6 = load ptr, ptr %data, align 8
  %7 = load ptr, ptr %str.addr, align 8
  %length = getelementptr inbounds %struct.asn1_string_st, ptr %7, i32 0, i32 0
  %8 = load i32, ptr %length, align 8
  %call = call i32 @ASN1_STRING_set(ptr noundef %4, ptr noundef %6, i32 noundef %8)
  %tobool = icmp ne i32 %call, 0
  br i1 %tobool, label %if.end3, label %if.then2

if.then2:                                         ; preds = %if.end
  store i32 0, ptr %retval, align 4
  br label %return

if.end3:                                          ; preds = %if.end
  %9 = load ptr, ptr %str.addr, align 8
  %flags = getelementptr inbounds %struct.asn1_string_st, ptr %9, i32 0, i32 3
  %10 = load i64, ptr %flags, align 8
  %11 = load ptr, ptr %dst.addr, align 8
  %flags4 = getelementptr inbounds %struct.asn1_string_st, ptr %11, i32 0, i32 3
  store i64 %10, ptr %flags4, align 8
  store i32 1, ptr %retval, align 4
  br label %return

return:                                           ; preds = %if.end3, %if.then2, %if.then
  %12 = load i32, ptr %retval, align 4
  ret i32 %12
}