; Function Attrs: nounwind uwtable
define hidden range(i32 0, 2) i32 @ASN1_STRING_copy(ptr noundef captures(none) %dst, ptr noundef readonly %str) local_unnamed_addr #1 {
entry:
  %cmp = icmp eq ptr %str, null
  br i1 %cmp, label %return, label %if.end

if.end:                                           ; preds = %entry
  %type = getelementptr inbounds nuw i8, ptr %str, i64 4
  %0 = load i32, ptr %type, align 4
  %type1 = getelementptr inbounds nuw i8, ptr %dst, i64 4
  store i32 %0, ptr %type1, align 4
  %data = getelementptr inbounds nuw i8, ptr %str, i64 8
  %1 = load ptr, ptr %data, align 8
  %2 = load i32, ptr %str, align 8
  %call = tail call i32 @ASN1_STRING_set(ptr noundef %dst, ptr noundef %1, i32 noundef %2)
  %tobool.not = icmp eq i32 %call, 0
  br i1 %tobool.not, label %return, label %if.end3

if.end3:                                          ; preds = %if.end
  %flags = getelementptr inbounds nuw i8, ptr %str, i64 16
  %3 = load i64, ptr %flags, align 8
  %flags4 = getelementptr inbounds nuw i8, ptr %dst, i64 16
  store i64 %3, ptr %flags4, align 8
  br label %return

return:                                           ; preds = %if.end, %entry, %if.end3
  %retval.0 = phi i32 [ 1, %if.end3 ], [ 0, %entry ], [ 0, %if.end ]
  ret i32 %retval.0
}